; Function Attrs: nounwind uwtable
define dso_local void @AtSubAbort_Snapshot(i32 noundef %0) local_unnamed_addr #0 {
  %.pr = load ptr, ptr @ActiveSnapshot, align 8
  %.not2 = icmp eq ptr %.pr, null
  br i1 %.not2, label %._crit_edge, label %.lr.ph

.lr.ph:                                           ; preds = %1, %21
  %2 = phi ptr [ %7, %21 ], [ %.pr, %1 ]
  %3 = getelementptr inbounds nuw i8, ptr %2, i64 8
  %4 = load i32, ptr %3, align 8
  %.not1 = icmp slt i32 %4, %0
  br i1 %.not1, label %SnapshotResetXmin.exit, label %5

5:                                                ; preds = %.lr.ph
  %6 = getelementptr inbounds nuw i8, ptr %2, i64 16
  %7 = load ptr, ptr %6, align 8
  %8 = load ptr, ptr %2, align 8
  %9 = getelementptr inbounds nuw i8, ptr %8, i64 64
  %10 = load i32, ptr %9, align 8
  %11 = add i32 %10, -1
  store i32 %11, ptr %9, align 8
  %12 = load ptr, ptr %2, align 8
  %13 = getelementptr inbounds nuw i8, ptr %12, i64 64
  %14 = load i32, ptr %13, align 8
  %15 = icmp eq i32 %14, 0
  br i1 %15, label %16, label %21

16:                                               ; preds = %5
  %17 = getelementptr inbounds nuw i8, ptr %12, i64 68
  %18 = load i32, ptr %17, align 4
  %19 = icmp eq i32 %18, 0
  br i1 %19, label %20, label %21

20:                                               ; preds = %16
  tail call void @pfree(ptr noundef nonnull %12) #18
  %.pre = load ptr, ptr @ActiveSnapshot, align 8
  br label %21

21:                                               ; preds = %20, %16, %5
  %22 = phi ptr [ %.pre, %20 ], [ %2, %16 ], [ %2, %5 ]
  tail call void @pfree(ptr noundef %22) #18
  store ptr %7, ptr @ActiveSnapshot, align 8
  %.not = icmp eq ptr %7, null
  br i1 %.not, label %._crit_edge, label %.lr.ph, !llvm.loop !8

._crit_edge:                                      ; preds = %21, %1
  %23 = load ptr, ptr getelementptr inbounds nuw (i8, ptr @RegisteredSnapshots, i64 16), align 8
  %24 = icmp eq ptr %23, null
  br i1 %24, label %.sink.split.i, label %25

25:                                               ; preds = %._crit_edge
  %26 = tail call ptr @pairingheap_first(ptr noundef nonnull @RegisteredSnapshots) #18
  %27 = load ptr, ptr @MyProc, align 8
  %28 = getelementptr inbounds nuw i8, ptr %27, i64 56
  %29 = load i32, ptr %28, align 8
  %30 = getelementptr inbounds i8, ptr %26, i64 -68
  %31 = load i32, ptr %30, align 4
  %32 = tail call zeroext i1 @TransactionIdPrecedes(i32 noundef %29, i32 noundef %31) #18
  br i1 %32, label %33, label %SnapshotResetXmin.exit

33:                                               ; preds = %25
  %34 = load i32, ptr %30, align 4
  br label %.sink.split.i

.sink.split.i:                                    ; preds = %33, %._crit_edge
  %.sink4.i = phi i32 [ %34, %33 ], [ 0, %._crit_edge ]
  store i32 %.sink4.i, ptr @TransactionXmin, align 4
  %35 = load ptr, ptr @MyProc, align 8
  %36 = getelementptr inbounds nuw i8, ptr %35, i64 56
  store i32 %.sink4.i, ptr %36, align 8
  br label %SnapshotResetXmin.exit

SnapshotResetXmin.exit:                           ; preds = %.lr.ph, %25, %.sink.split.i
  ret void
}